target datalayout = "e-m:e-p270:32:32-p271:32:32-p272:64:64-i64:64-i128:128-f80:128-n8:16:32:64-S128"
target triple = "x86_64-pc-linux-gnu"

%struct._generic_N_Vector = type { ptr, ptr, ptr }
%struct._N_VectorContent_Serial = type { i64, i32, ptr }

@.str.15 = private unnamed_addr constant [2 x i8] c"\0A\00", align 1
@.str.16 = private unnamed_addr constant [13 x i8] c"Exact Newton\00", align 1
@.str.17 = private unnamed_addr constant [16 x i8] c"Modified Newton\00", align 1
@.str.18 = private unnamed_addr constant [19 x i8] c" with line search\0A\00", align 1
@.str.19 = private unnamed_addr constant [20 x i8] c"KINSetMaxSetupCalls\00", align 1
@.str.20 = private unnamed_addr constant [7 x i8] c"KINSol\00", align 1
@.str.21 = private unnamed_addr constant [23 x i8] c"Solution:\0A  [x1,x2] = \00", align 1
@.str.22 = private unnamed_addr constant [25 x i8] c"KINGetNumNonlinSolvIters\00", align 1
@.str.23 = private unnamed_addr constant [19 x i8] c"KINGetNumFuncEvals\00", align 1
@.str.24 = private unnamed_addr constant [18 x i8] c"KINGetNumJacEvals\00", align 1
@.str.25 = private unnamed_addr constant [22 x i8] c"KINGetNumLinFuncEvals\00", align 1
@.str.26 = private unnamed_addr constant [19 x i8] c"Final Statistics:\0A\00", align 1
@.str.27 = private unnamed_addr constant [30 x i8] c"  nni = %5ld    nfe  = %5ld \0A\00", align 1
@.str.28 = private unnamed_addr constant [30 x i8] c"  nje = %5ld    nfeD = %5ld \0A\00", align 1
@.str.32 = private unnamed_addr constant [15 x i8] c" %8.6g  %8.6g\0A\00", align 1
@stderr = external global ptr, align 8
@.str.33 = private unnamed_addr constant [55 x i8] c"\0ASUNDIALS_ERROR: %s() failed - returned NULL pointer\0A\0A\00", align 1
@.str.34 = private unnamed_addr constant [48 x i8] c"\0ASUNDIALS_ERROR: %s() failed with retval = %d\0A\0A\00", align 1
@.str.35 = private unnamed_addr constant [53 x i8] c"\0AMEMORY_ERROR: %s() failed - returned NULL pointer\0A\0A\00", align 1

; Function Attrs: nounwind uwtable
define internal void @PrintFinalStats(ptr noundef %0) #0 {
  %2 = alloca ptr, align 8
  %3 = alloca i64, align 8
  %4 = alloca i64, align 8
  %5 = alloca i64, align 8
  %6 = alloca i64, align 8
  %7 = alloca i32, align 4
  store ptr %0, ptr %2, align 8, !tbaa !9
  call void @llvm.lifetime.start.p0(i64 8, ptr %3) #6
  call void @llvm.lifetime.start.p0(i64 8, ptr %4) #6
  call void @llvm.lifetime.start.p0(i64 8, ptr %5) #6
  call void @llvm.lifetime.start.p0(i64 8, ptr %6) #6
  call void @llvm.lifetime.start.p0(i64 4, ptr %7) #6
  %8 = load ptr, ptr %2, align 8, !tbaa !9
  %9 = call i32 @KINGetNumNonlinSolvIters(ptr noundef %8, ptr noundef %3)
  store i32 %9, ptr %7, align 4, !tbaa !14
  %10 = call i32 @check_retval(ptr noundef %7, ptr noundef @.str.22, i32 noundef 1)
  %11 = load ptr, ptr %2, align 8, !tbaa !9
  %12 = call i32 @KINGetNumFuncEvals(ptr noundef %11, ptr noundef %4)
  store i32 %12, ptr %7, align 4, !tbaa !14
  %13 = call i32 @check_retval(ptr noundef %7, ptr noundef @.str.23, i32 noundef 1)
  %14 = load ptr, ptr %2, align 8, !tbaa !9
  %15 = call i32 @KINGetNumJacEvals(ptr noundef %14, ptr noundef %5)
  store i32 %15, ptr %7, align 4, !tbaa !14
  %16 = call i32 @check_retval(ptr noundef %7, ptr noundef @.str.24, i32 noundef 1)
  %17 = load ptr, ptr %2, align 8, !tbaa !9
  %18 = call i32 @KINGetNumLinFuncEvals(ptr noundef %17, ptr noundef %6)
  store i32 %18, ptr %7, align 4, !tbaa !14
  %19 = call i32 @check_retval(ptr noundef %7, ptr noundef @.str.25, i32 noundef 1)
  %20 = call i32 (ptr, ...) @printf(ptr noundef @.str.26)
  %21 = load i64, ptr %3, align 8, !tbaa !34
  %22 = load i64, ptr %4, align 8, !tbaa !34
  %23 = call i32 (ptr, ...) @printf(ptr noundef @.str.27, i64 noundef %21, i64 noundef %22)
  %24 = load i64, ptr %5, align 8, !tbaa !34
  %25 = load i64, ptr %6, align 8, !tbaa !34
  %26 = call i32 (ptr, ...) @printf(ptr noundef @.str.28, i64 noundef %24, i64 noundef %25)
  call void @llvm.lifetime.end.p0(i64 4, ptr %7) #6
  call void @llvm.lifetime.end.p0(i64 8, ptr %6) #6
  call void @llvm.lifetime.end.p0(i64 8, ptr %5) #6
  call void @llvm.lifetime.end.p0(i64 8, ptr %4) #6
  call void @llvm.lifetime.end.p0(i64 8, ptr %3) #6
  ret void
}

; Function Attrs: nounwind uwtable
define internal void @PrintOutput(ptr noundef %0) #0 {
  %2 = alloca ptr, align 8
  store ptr %0, ptr %2, align 8, !tbaa !4
  %3 = load ptr, ptr %2, align 8, !tbaa !4
  %4 = getelementptr inbounds nuw %struct._generic_N_Vector, ptr %3, i32 0, i32 0
  %5 = load ptr, ptr %4, align 8, !tbaa !20
  %6 = getelementptr inbounds nuw %struct._N_VectorContent_Serial, ptr %5, i32 0, i32 2
  %7 = load ptr, ptr %6, align 8, !tbaa !23
  %8 = getelementptr inbounds double, ptr %7, i64 0
  %9 = load double, ptr %8, align 8, !tbaa !16
  %10 = load ptr, ptr %2, align 8, !tbaa !4
  %11 = getelementptr inbounds nuw %struct._generic_N_Vector, ptr %10, i32 0, i32 0
  %12 = load ptr, ptr %11, align 8, !tbaa !20
  %13 = getelementptr inbounds nuw %struct._N_VectorContent_Serial, ptr %12, i32 0, i32 2
  %14 = load ptr, ptr %13, align 8, !tbaa !23
  %15 = getelementptr inbounds double, ptr %14, i64 1
  %16 = load double, ptr %15, align 8, !tbaa !16
  %17 = call i32 (ptr, ...) @printf(ptr noundef @.str.32, double noundef %9, double noundef %16)
  ret void
}

; Function Attrs: nounwind uwtable
define internal i32 @check_retval(ptr noundef %0, ptr noundef %1, i32 noundef %2) #0 {
  %4 = alloca i32, align 4
  %5 = alloca ptr, align 8
  %6 = alloca ptr, align 8
  %7 = alloca i32, align 4
  %8 = alloca ptr, align 8
  %9 = alloca i32, align 4
  store ptr %0, ptr %5, align 8, !tbaa !9
  store ptr %1, ptr %6, align 8, !tbaa !27
  store i32 %2, ptr %7, align 4, !tbaa !14
  call void @llvm.lifetime.start.p0(i64 8, ptr %8) #6
  %10 = load i32, ptr %7, align 4, !tbaa !14
  %11 = icmp eq i32 %10, 0
  br i1 %11, label %12, label %19

12:                                               ; preds = %3
  %13 = load ptr, ptr %5, align 8, !tbaa !9
  %14 = icmp eq ptr %13, null
  br i1 %14, label %15, label %19

15:                                               ; preds = %12
  %16 = load ptr, ptr @stderr, align 8, !tbaa !29
  %17 = load ptr, ptr %6, align 8, !tbaa !27
  %18 = call i32 (ptr, ptr, ...) @fprintf(ptr noundef %16, ptr noundef @.str.33, ptr noundef %17) #6
  store i32 1, ptr %4, align 4
  store i32 1, ptr %9, align 4
  br label %47

19:                                               ; preds = %12, %3
  %20 = load i32, ptr %7, align 4, !tbaa !14
  %21 = icmp eq i32 %20, 1
  br i1 %21, label %22, label %34

22:                                               ; preds = %19
  %23 = load ptr, ptr %5, align 8, !tbaa !9
  store ptr %23, ptr %8, align 8, !tbaa !31
  %24 = load ptr, ptr %8, align 8, !tbaa !31
  %25 = load i32, ptr %24, align 4, !tbaa !14
  %26 = icmp slt i32 %25, 0
  br i1 %26, label %27, label %33

27:                                               ; preds = %22
  %28 = load ptr, ptr @stderr, align 8, !tbaa !29
  %29 = load ptr, ptr %6, align 8, !tbaa !27
  %30 = load ptr, ptr %8, align 8, !tbaa !31
  %31 = load i32, ptr %30, align 4, !tbaa !14
  %32 = call i32 (ptr, ptr, ...) @fprintf(ptr noundef %28, ptr noundef @.str.34, ptr noundef %29, i32 noundef %31) #6
  store i32 1, ptr %4, align 4
  store i32 1, ptr %9, align 4
  br label %47

33:                                               ; preds = %22
  br label %45

34:                                               ; preds = %19
  %35 = load i32, ptr %7, align 4, !tbaa !14
  %36 = icmp eq i32 %35, 2
  br i1 %36, label %37, label %44

37:                                               ; preds = %34
  %38 = load ptr, ptr %5, align 8, !tbaa !9
  %39 = icmp eq ptr %38, null
  br i1 %39, label %40, label %44

40:                                               ; preds = %37
  %41 = load ptr, ptr @stderr, align 8, !tbaa !29
  %42 = load ptr, ptr %6, align 8, !tbaa !27
  %43 = call i32 (ptr, ptr, ...) @fprintf(ptr noundef %41, ptr noundef @.str.35, ptr noundef %42) #6
  store i32 1, ptr %4, align 4
  store i32 1, ptr %9, align 4
  br label %47

44:                                               ; preds = %37, %34
  br label %45

45:                                               ; preds = %44, %33
  br label %46

46:                                               ; preds = %45
  store i32 0, ptr %4, align 4
  store i32 1, ptr %9, align 4
  br label %47

47:                                               ; preds = %46, %40, %27, %15
  call void @llvm.lifetime.end.p0(i64 8, ptr %8) #6
  %48 = load i32, ptr %4, align 4
  ret i32 %48
}

; Function Attrs: nounwind uwtable
define internal i32 @SolveIt(ptr noundef %0, ptr noundef %1, ptr noundef %2, i32 noundef %3, i32 noundef %4) #0 {
  %6 = alloca i32, align 4
  %7 = alloca ptr, align 8
  %8 = alloca ptr, align 8
  %9 = alloca ptr, align 8
  %10 = alloca i32, align 4
  %11 = alloca i32, align 4
  %12 = alloca i32, align 4
  %13 = alloca i32, align 4
  store ptr %0, ptr %7, align 8, !tbaa !9
  store ptr %1, ptr %8, align 8, !tbaa !4
  store ptr %2, ptr %9, align 8, !tbaa !4
  store i32 %3, ptr %10, align 4, !tbaa !14
  store i32 %4, ptr %11, align 4, !tbaa !14
  call void @llvm.lifetime.start.p0(i64 4, ptr %12) #6
  %14 = call i32 (ptr, ...) @printf(ptr noundef @.str.15)
  %15 = load i32, ptr %11, align 4, !tbaa !14
  %16 = icmp eq i32 %15, 1
  br i1 %16, label %17, label %19

17:                                               ; preds = %5
  %18 = call i32 (ptr, ...) @printf(ptr noundef @.str.16)
  br label %21

19:                                               ; preds = %5
  %20 = call i32 (ptr, ...) @printf(ptr noundef @.str.17)
  br label %21

21:                                               ; preds = %19, %17
  %22 = load i32, ptr %10, align 4, !tbaa !14
  %23 = icmp eq i32 %22, 0
  br i1 %23, label %24, label %26

24:                                               ; preds = %21
  %25 = call i32 (ptr, ...) @printf(ptr noundef @.str.15)
  br label %28

26:                                               ; preds = %21
  %27 = call i32 (ptr, ...) @printf(ptr noundef @.str.18)
  br label %28

28:                                               ; preds = %26, %24
  %29 = load ptr, ptr %7, align 8, !tbaa !9
  %30 = load i32, ptr %11, align 4, !tbaa !14
  %31 = sext i32 %30 to i64
  %32 = call i32 @KINSetMaxSetupCalls(ptr noundef %29, i64 noundef %31)
  store i32 %32, ptr %12, align 4, !tbaa !14
  %33 = call i32 @check_retval(ptr noundef %12, ptr noundef @.str.19, i32 noundef 1)
  %34 = icmp ne i32 %33, 0
  br i1 %34, label %35, label %36

35:                                               ; preds = %28
  store i32 1, ptr %6, align 4
  store i32 1, ptr %13, align 4
  br label %50

36:                                               ; preds = %28
  %37 = load ptr, ptr %7, align 8, !tbaa !9
  %38 = load ptr, ptr %8, align 8, !tbaa !4
  %39 = load i32, ptr %10, align 4, !tbaa !14
  %40 = load ptr, ptr %9, align 8, !tbaa !4
  %41 = load ptr, ptr %9, align 8, !tbaa !4
  %42 = call i32 @KINSol(ptr noundef %37, ptr noundef %38, i32 noundef %39, ptr noundef %40, ptr noundef %41)
  store i32 %42, ptr %12, align 4, !tbaa !14
  %43 = call i32 @check_retval(ptr noundef %12, ptr noundef @.str.20, i32 noundef 1)
  %44 = icmp ne i32 %43, 0
  br i1 %44, label %45, label %46

45:                                               ; preds = %36
  store i32 1, ptr %6, align 4
  store i32 1, ptr %13, align 4
  br label %50

46:                                               ; preds = %36
  %47 = call i32 (ptr, ...) @printf(ptr noundef @.str.21)
  %48 = load ptr, ptr %8, align 8, !tbaa !4
  call void @PrintOutput(ptr noundef %48)
  %49 = load ptr, ptr %7, align 8, !tbaa !9
  call void @PrintFinalStats(ptr noundef %49)
  store i32 0, ptr %6, align 4
  store i32 1, ptr %13, align 4
  br label %50

50:                                               ; preds = %46, %45, %35
  call void @llvm.lifetime.end.p0(i64 4, ptr %12) #6
  %51 = load i32, ptr %6, align 4
  ret i32 %51
}