; Function Attrs: nounwind uwtable
define internal fastcc void @SolveIt(ptr noundef %0, ptr noundef %1, ptr noundef %2, i32 noundef range(i32 0, 2) %3, i32 noundef range(i32 0, 2) %4) unnamed_addr #0 {
  %6 = alloca i64, align 8
  %7 = alloca i64, align 8
  %8 = alloca i64, align 8
  %9 = alloca i64, align 8
  %putchar = tail call i32 @putchar(i32 10)
  %.not = icmp eq i32 %4, 0
  %.str.17..str.16 = select i1 %.not, ptr @.str.17, ptr @.str.16
  %10 = tail call i32 (ptr, ...) @printf(ptr noundef nonnull dereferenceable(1) %.str.17..str.16)
  %11 = icmp eq i32 %3, 0
  br i1 %11, label %12, label %13

12:                                               ; preds = %5
  %putchar11 = tail call i32 @putchar(i32 10)
  br label %14

13:                                               ; preds = %5
  %puts = tail call i32 @puts(ptr nonnull dereferenceable(1) @str.6)
  br label %14

14:                                               ; preds = %13, %12
  %15 = zext nneg i32 %4 to i64
  %16 = tail call i32 @KINSetMaxSetupCalls(ptr noundef %0, i64 noundef %15) #11
  %17 = icmp slt i32 %16, 0
  br i1 %17, label %check_retval.exit, label %20

check_retval.exit:                                ; preds = %14
  %18 = load ptr, ptr @stderr, align 8, !tbaa !4
  %19 = tail call i32 (ptr, ptr, ...) @fprintf(ptr noundef %18, ptr noundef nonnull @.str.34, ptr noundef nonnull @.str.19, i32 noundef %16) #12
  br label %56

20:                                               ; preds = %14
  %21 = tail call i32 @KINSol(ptr noundef %0, ptr noundef %1, i32 noundef %3, ptr noundef %2, ptr noundef %2) #11
  %22 = icmp slt i32 %21, 0
  br i1 %22, label %check_retval.exit16, label %25

check_retval.exit16:                              ; preds = %20
  %23 = load ptr, ptr @stderr, align 8, !tbaa !4
  %24 = tail call i32 (ptr, ptr, ...) @fprintf(ptr noundef %23, ptr noundef nonnull @.str.34, ptr noundef nonnull @.str.20, i32 noundef %21) #12
  br label %56

25:                                               ; preds = %20
  %26 = tail call i32 (ptr, ...) @printf(ptr noundef nonnull dereferenceable(1) @.str.21)
  %.val = load ptr, ptr %1, align 8, !tbaa !13
  %27 = getelementptr i8, ptr %.val, i64 16
  %.val.val = load ptr, ptr %27, align 8, !tbaa !16
  %.val.val.val = load double, ptr %.val.val, align 8, !tbaa !9
  %28 = getelementptr i8, ptr %.val.val, i64 8
  %.val.val.val14 = load double, ptr %28, align 8, !tbaa !9
  %29 = tail call i32 (ptr, ...) @printf(ptr noundef nonnull dereferenceable(1) @.str.32, double noundef %.val.val.val, double noundef %.val.val.val14)
  call void @llvm.lifetime.start.p0(i64 8, ptr nonnull %6) #11
  call void @llvm.lifetime.start.p0(i64 8, ptr nonnull %7) #11
  call void @llvm.lifetime.start.p0(i64 8, ptr nonnull %8) #11
  call void @llvm.lifetime.start.p0(i64 8, ptr nonnull %9) #11
  %30 = call i32 @KINGetNumNonlinSolvIters(ptr noundef %0, ptr noundef nonnull %6) #11
  %31 = icmp slt i32 %30, 0
  br i1 %31, label %32, label %check_retval.exit.i

32:                                               ; preds = %25
  %33 = load ptr, ptr @stderr, align 8, !tbaa !4
  %34 = call i32 (ptr, ptr, ...) @fprintf(ptr noundef %33, ptr noundef nonnull @.str.34, ptr noundef nonnull @.str.22, i32 noundef %30) #12
  br label %check_retval.exit.i

check_retval.exit.i:                              ; preds = %32, %25
  %35 = call i32 @KINGetNumFuncEvals(ptr noundef %0, ptr noundef nonnull %7) #11
  %36 = icmp slt i32 %35, 0
  br i1 %36, label %37, label %check_retval.exit5.i

37:                                               ; preds = %check_retval.exit.i
  %38 = load ptr, ptr @stderr, align 8, !tbaa !4
  %39 = call i32 (ptr, ptr, ...) @fprintf(ptr noundef %38, ptr noundef nonnull @.str.34, ptr noundef nonnull @.str.23, i32 noundef %35) #12
  br label %check_retval.exit5.i

check_retval.exit5.i:                             ; preds = %37, %check_retval.exit.i
  %40 = call i32 @KINGetNumJacEvals(ptr noundef %0, ptr noundef nonnull %8) #11
  %41 = icmp slt i32 %40, 0
  br i1 %41, label %42, label %check_retval.exit7.i

42:                                               ; preds = %check_retval.exit5.i
  %43 = load ptr, ptr @stderr, align 8, !tbaa !4
  %44 = call i32 (ptr, ptr, ...) @fprintf(ptr noundef %43, ptr noundef nonnull @.str.34, ptr noundef nonnull @.str.24, i32 noundef %40) #12
  br label %check_retval.exit7.i

check_retval.exit7.i:                             ; preds = %42, %check_retval.exit5.i
  %45 = call i32 @KINGetNumLinFuncEvals(ptr noundef %0, ptr noundef nonnull %9) #11
  %46 = icmp slt i32 %45, 0
  br i1 %46, label %47, label %PrintFinalStats.exit

47:                                               ; preds = %check_retval.exit7.i
  %48 = load ptr, ptr @stderr, align 8, !tbaa !4
  %49 = call i32 (ptr, ptr, ...) @fprintf(ptr noundef %48, ptr noundef nonnull @.str.34, ptr noundef nonnull @.str.25, i32 noundef %45) #12
  br label %PrintFinalStats.exit

PrintFinalStats.exit:                             ; preds = %check_retval.exit7.i, %47
  %puts.i = call i32 @puts(ptr nonnull dereferenceable(1) @str.7)
  %50 = load i64, ptr %6, align 8, !tbaa !23
  %51 = load i64, ptr %7, align 8, !tbaa !23
  %52 = call i32 (ptr, ...) @printf(ptr noundef nonnull dereferenceable(1) @.str.27, i64 noundef %50, i64 noundef %51)
  %53 = load i64, ptr %8, align 8, !tbaa !23
  %54 = load i64, ptr %9, align 8, !tbaa !23
  %55 = call i32 (ptr, ...) @printf(ptr noundef nonnull dereferenceable(1) @.str.28, i64 noundef %53, i64 noundef %54)
  call void @llvm.lifetime.end.p0(i64 8, ptr nonnull %9) #11
  call void @llvm.lifetime.end.p0(i64 8, ptr nonnull %8) #11
  call void @llvm.lifetime.end.p0(i64 8, ptr nonnull %7) #11
  call void @llvm.lifetime.end.p0(i64 8, ptr nonnull %6) #11
  br label %56

56:                                               ; preds = %check_retval.exit16, %check_retval.exit, %PrintFinalStats.exit
  ret void
}